target datalayout = "e-m:e-p270:32:32-p271:32:32-p272:64:64-i64:64-i128:128-f80:128-n8:16:32:64-S128"
target triple = "x86_64-pc-linux-gnu"

%struct.URLComponents = type { ptr, ptr, ptr, ptr, ptr, ptr, ptr, ptr, ptr, ptr }

@.str.3 = private unnamed_addr constant [2 x i8] c"]\00", align 1
@.str.5 = private unnamed_addr constant [30 x i8] c"Assertion %s failed at %s:%d\0A\00", align 1
@.str.6 = private unnamed_addr constant [4 x i8] c"url\00", align 1
@.str.7 = private unnamed_addr constant [18 x i8] c"libavformat/url.c\00", align 1
@.str.8 = private unnamed_addr constant [5 x i8] c":/?#\00", align 1
@.str.9 = private unnamed_addr constant [4 x i8] c"/?#\00", align 1
@.str.10 = private unnamed_addr constant [2 x i8] c"@\00", align 1
@.str.11 = private unnamed_addr constant [2 x i8] c":\00", align 1
@.str.12 = private unnamed_addr constant [3 x i8] c"?#\00", align 1
@.str.13 = private unnamed_addr constant [2 x i8] c"#\00", align 1

; Function Attrs: nounwind uwtable
define internal ptr @find_delim(ptr noundef %0, ptr noundef %1, ptr noundef %2) #0 {
  %4 = alloca ptr, align 8
  %5 = alloca ptr, align 8
  %6 = alloca ptr, align 8
  store ptr %0, ptr %4, align 8, !tbaa !4
  store ptr %1, ptr %5, align 8, !tbaa !4
  store ptr %2, ptr %6, align 8, !tbaa !4
  br label %7

7:                                                ; preds = %21, %3
  %8 = load ptr, ptr %5, align 8, !tbaa !4
  %9 = load ptr, ptr %6, align 8, !tbaa !4
  %10 = icmp ult ptr %8, %9
  br i1 %10, label %11, label %19

11:                                               ; preds = %7
  %12 = load ptr, ptr %4, align 8, !tbaa !4
  %13 = load ptr, ptr %5, align 8, !tbaa !4
  %14 = load i8, ptr %13, align 1, !tbaa !11
  %15 = sext i8 %14 to i32
  %16 = call ptr @strchr(ptr noundef %12, i32 noundef %15) #10
  %17 = icmp ne ptr %16, null
  %18 = xor i1 %17, true
  br label %19

19:                                               ; preds = %11, %7
  %20 = phi i1 [ false, %7 ], [ %18, %11 ]
  br i1 %20, label %21, label %24

21:                                               ; preds = %19
  %22 = load ptr, ptr %5, align 8, !tbaa !4
  %23 = getelementptr inbounds nuw i8, ptr %22, i32 1
  store ptr %23, ptr %5, align 8, !tbaa !4
  br label %7, !llvm.loop !33

24:                                               ; preds = %19
  %25 = load ptr, ptr %5, align 8, !tbaa !4
  ret ptr %25
}

; Function Attrs: nounwind uwtable
define i32 @ff_url_decompose(ptr noundef %0, ptr noundef %1, ptr noundef %2) #0 {
  %4 = alloca i32, align 4
  %5 = alloca ptr, align 8
  %6 = alloca ptr, align 8
  %7 = alloca ptr, align 8
  %8 = alloca ptr, align 8
  %9 = alloca ptr, align 8
  %10 = alloca ptr, align 8
  %11 = alloca i32, align 4
  store ptr %0, ptr %5, align 8, !tbaa !20
  store ptr %1, ptr %6, align 8, !tbaa !4
  store ptr %2, ptr %7, align 8, !tbaa !4
  call void @llvm.lifetime.start.p0(i64 8, ptr %8) #9
  call void @llvm.lifetime.start.p0(i64 8, ptr %9) #9
  call void @llvm.lifetime.start.p0(i64 8, ptr %10) #9
  br label %12

12:                                               ; preds = %3
  %13 = load ptr, ptr %6, align 8, !tbaa !4
  %14 = icmp ne ptr %13, null
  br i1 %14, label %16, label %15

15:                                               ; preds = %12
  call void (ptr, i32, ptr, ...) @av_log(ptr noundef null, i32 noundef 0, ptr noundef @.str.5, ptr noundef @.str.6, ptr noundef @.str.7, i32 noundef 95)
  call void @abort() #11
  unreachable

16:                                               ; preds = %12
  br label %17

17:                                               ; preds = %16
  br label %18

18:                                               ; preds = %17
  %19 = load ptr, ptr %7, align 8, !tbaa !4
  %20 = icmp ne ptr %19, null
  br i1 %20, label %26, label %21

21:                                               ; preds = %18
  %22 = load ptr, ptr %6, align 8, !tbaa !4
  %23 = load ptr, ptr %6, align 8, !tbaa !4
  %24 = call i64 @strlen(ptr noundef %23) #10
  %25 = getelementptr inbounds nuw i8, ptr %22, i64 %24
  store ptr %25, ptr %7, align 8, !tbaa !4
  br label %26

26:                                               ; preds = %21, %18
  %27 = load ptr, ptr %6, align 8, !tbaa !4
  %28 = load ptr, ptr %5, align 8, !tbaa !20
  %29 = getelementptr inbounds nuw %struct.URLComponents, ptr %28, i32 0, i32 0
  store ptr %27, ptr %29, align 8, !tbaa !22
  store ptr %27, ptr %8, align 8, !tbaa !4
  %30 = load ptr, ptr %8, align 8, !tbaa !4
  %31 = load ptr, ptr %5, align 8, !tbaa !20
  %32 = getelementptr inbounds nuw %struct.URLComponents, ptr %31, i32 0, i32 1
  store ptr %30, ptr %32, align 8, !tbaa !24
  %33 = load ptr, ptr %8, align 8, !tbaa !4
  %34 = load ptr, ptr %7, align 8, !tbaa !4
  %35 = call ptr @find_delim(ptr noundef @.str.8, ptr noundef %33, ptr noundef %34)
  store ptr %35, ptr %10, align 8, !tbaa !4
  %36 = load ptr, ptr %10, align 8, !tbaa !4
  %37 = load i8, ptr %36, align 1, !tbaa !11
  %38 = sext i8 %37 to i32
  %39 = icmp eq i32 %38, 58
  br i1 %39, label %40, label %43

40:                                               ; preds = %26
  %41 = load ptr, ptr %10, align 8, !tbaa !4
  %42 = getelementptr inbounds i8, ptr %41, i64 1
  store ptr %42, ptr %8, align 8, !tbaa !4
  br label %43

43:                                               ; preds = %40, %26
  %44 = load ptr, ptr %8, align 8, !tbaa !4
  %45 = load ptr, ptr %5, align 8, !tbaa !20
  %46 = getelementptr inbounds nuw %struct.URLComponents, ptr %45, i32 0, i32 2
  store ptr %44, ptr %46, align 8, !tbaa !25
  %47 = load ptr, ptr %7, align 8, !tbaa !4
  %48 = load ptr, ptr %8, align 8, !tbaa !4
  %49 = ptrtoint ptr %47 to i64
  %50 = ptrtoint ptr %48 to i64
  %51 = sub i64 %49, %50
  %52 = icmp sge i64 %51, 2
  br i1 %52, label %53, label %125

53:                                               ; preds = %43
  %54 = load ptr, ptr %8, align 8, !tbaa !4
  %55 = getelementptr inbounds i8, ptr %54, i64 0
  %56 = load i8, ptr %55, align 1, !tbaa !11
  %57 = sext i8 %56 to i32
  %58 = icmp eq i32 %57, 47
  br i1 %58, label %59, label %125

59:                                               ; preds = %53
  %60 = load ptr, ptr %8, align 8, !tbaa !4
  %61 = getelementptr inbounds i8, ptr %60, i64 1
  %62 = load i8, ptr %61, align 1, !tbaa !11
  %63 = sext i8 %62 to i32
  %64 = icmp eq i32 %63, 47
  br i1 %64, label %65, label %125

65:                                               ; preds = %59
  %66 = load ptr, ptr %8, align 8, !tbaa !4
  %67 = getelementptr inbounds i8, ptr %66, i64 2
  store ptr %67, ptr %8, align 8, !tbaa !4
  %68 = load ptr, ptr %8, align 8, !tbaa !4
  %69 = load ptr, ptr %7, align 8, !tbaa !4
  %70 = call ptr @find_delim(ptr noundef @.str.9, ptr noundef %68, ptr noundef %69)
  store ptr %70, ptr %9, align 8, !tbaa !4
  %71 = load ptr, ptr %8, align 8, !tbaa !4
  %72 = load ptr, ptr %5, align 8, !tbaa !20
  %73 = getelementptr inbounds nuw %struct.URLComponents, ptr %72, i32 0, i32 3
  store ptr %71, ptr %73, align 8, !tbaa !26
  %74 = load ptr, ptr %8, align 8, !tbaa !4
  %75 = load ptr, ptr %9, align 8, !tbaa !4
  %76 = call ptr @find_delim(ptr noundef @.str.10, ptr noundef %74, ptr noundef %75)
  store ptr %76, ptr %10, align 8, !tbaa !4
  %77 = load ptr, ptr %10, align 8, !tbaa !4
  %78 = load i8, ptr %77, align 1, !tbaa !11
  %79 = sext i8 %78 to i32
  %80 = icmp eq i32 %79, 64
  br i1 %80, label %81, label %84

81:                                               ; preds = %65
  %82 = load ptr, ptr %10, align 8, !tbaa !4
  %83 = getelementptr inbounds i8, ptr %82, i64 1
  store ptr %83, ptr %8, align 8, !tbaa !4
  br label %84

84:                                               ; preds = %81, %65
  %85 = load ptr, ptr %8, align 8, !tbaa !4
  %86 = load ptr, ptr %5, align 8, !tbaa !20
  %87 = getelementptr inbounds nuw %struct.URLComponents, ptr %86, i32 0, i32 4
  store ptr %85, ptr %87, align 8, !tbaa !27
  %88 = load ptr, ptr %8, align 8, !tbaa !4
  %89 = load i8, ptr %88, align 1, !tbaa !11
  %90 = sext i8 %89 to i32
  %91 = icmp eq i32 %90, 91
  br i1 %91, label %92, label %116

92:                                               ; preds = %84
  %93 = load ptr, ptr %8, align 8, !tbaa !4
  %94 = load ptr, ptr %9, align 8, !tbaa !4
  %95 = call ptr @find_delim(ptr noundef @.str.3, ptr noundef %93, ptr noundef %94)
  store ptr %95, ptr %10, align 8, !tbaa !4
  %96 = load ptr, ptr %10, align 8, !tbaa !4
  %97 = load i8, ptr %96, align 1, !tbaa !11
  %98 = sext i8 %97 to i32
  %99 = icmp ne i32 %98, 93
  br i1 %99, label %100, label %101

100:                                              ; preds = %92
  store i32 -22, ptr %4, align 4
  store i32 1, ptr %11, align 4
  br label %158

101:                                              ; preds = %92
  %102 = load ptr, ptr %10, align 8, !tbaa !4
  %103 = getelementptr inbounds i8, ptr %102, i64 1
  %104 = load ptr, ptr %9, align 8, !tbaa !4
  %105 = icmp ult ptr %103, %104
  br i1 %105, label %106, label %113

106:                                              ; preds = %101
  %107 = load ptr, ptr %10, align 8, !tbaa !4
  %108 = getelementptr inbounds i8, ptr %107, i64 1
  %109 = load i8, ptr %108, align 1, !tbaa !11
  %110 = sext i8 %109 to i32
  %111 = icmp ne i32 %110, 58
  br i1 %111, label %112, label %113

112:                                              ; preds = %106
  store i32 -22, ptr %4, align 4
  store i32 1, ptr %11, align 4
  br label %158

113:                                              ; preds = %106, %101
  %114 = load ptr, ptr %10, align 8, !tbaa !4
  %115 = getelementptr inbounds i8, ptr %114, i64 1
  store ptr %115, ptr %8, align 8, !tbaa !4
  br label %120

116:                                              ; preds = %84
  %117 = load ptr, ptr %8, align 8, !tbaa !4
  %118 = load ptr, ptr %9, align 8, !tbaa !4
  %119 = call ptr @find_delim(ptr noundef @.str.11, ptr noundef %117, ptr noundef %118)
  store ptr %119, ptr %8, align 8, !tbaa !4
  br label %120

120:                                              ; preds = %116, %113
  %121 = load ptr, ptr %8, align 8, !tbaa !4
  %122 = load ptr, ptr %5, align 8, !tbaa !20
  %123 = getelementptr inbounds nuw %struct.URLComponents, ptr %122, i32 0, i32 5
  store ptr %121, ptr %123, align 8, !tbaa !28
  %124 = load ptr, ptr %9, align 8, !tbaa !4
  store ptr %124, ptr %8, align 8, !tbaa !4
  br label %133

125:                                              ; preds = %59, %53, %43
  %126 = load ptr, ptr %8, align 8, !tbaa !4
  %127 = load ptr, ptr %5, align 8, !tbaa !20
  %128 = getelementptr inbounds nuw %struct.URLComponents, ptr %127, i32 0, i32 5
  store ptr %126, ptr %128, align 8, !tbaa !28
  %129 = load ptr, ptr %5, align 8, !tbaa !20
  %130 = getelementptr inbounds nuw %struct.URLComponents, ptr %129, i32 0, i32 4
  store ptr %126, ptr %130, align 8, !tbaa !27
  %131 = load ptr, ptr %5, align 8, !tbaa !20
  %132 = getelementptr inbounds nuw %struct.URLComponents, ptr %131, i32 0, i32 3
  store ptr %126, ptr %132, align 8, !tbaa !26
  br label %133

133:                                              ; preds = %125, %120
  %134 = load ptr, ptr %8, align 8, !tbaa !4
  %135 = load ptr, ptr %5, align 8, !tbaa !20
  %136 = getelementptr inbounds nuw %struct.URLComponents, ptr %135, i32 0, i32 6
  store ptr %134, ptr %136, align 8, !tbaa !29
  %137 = load ptr, ptr %8, align 8, !tbaa !4
  %138 = load ptr, ptr %7, align 8, !tbaa !4
  %139 = call ptr @find_delim(ptr noundef @.str.12, ptr noundef %137, ptr noundef %138)
  store ptr %139, ptr %8, align 8, !tbaa !4
  %140 = load ptr, ptr %8, align 8, !tbaa !4
  %141 = load ptr, ptr %5, align 8, !tbaa !20
  %142 = getelementptr inbounds nuw %struct.URLComponents, ptr %141, i32 0, i32 7
  store ptr %140, ptr %142, align 8, !tbaa !30
  %143 = load ptr, ptr %8, align 8, !tbaa !4
  %144 = load i8, ptr %143, align 1, !tbaa !11
  %145 = sext i8 %144 to i32
  %146 = icmp eq i32 %145, 63
  br i1 %146, label %147, label %151

147:                                              ; preds = %133
  %148 = load ptr, ptr %8, align 8, !tbaa !4
  %149 = load ptr, ptr %7, align 8, !tbaa !4
  %150 = call ptr @find_delim(ptr noundef @.str.13, ptr noundef %148, ptr noundef %149)
  store ptr %150, ptr %8, align 8, !tbaa !4
  br label %151

151:                                              ; preds = %147, %133
  %152 = load ptr, ptr %8, align 8, !tbaa !4
  %153 = load ptr, ptr %5, align 8, !tbaa !20
  %154 = getelementptr inbounds nuw %struct.URLComponents, ptr %153, i32 0, i32 8
  store ptr %152, ptr %154, align 8, !tbaa !31
  %155 = load ptr, ptr %7, align 8, !tbaa !4
  %156 = load ptr, ptr %5, align 8, !tbaa !20
  %157 = getelementptr inbounds nuw %struct.URLComponents, ptr %156, i32 0, i32 9
  store ptr %155, ptr %157, align 8, !tbaa !32
  store i32 0, ptr %4, align 4
  store i32 1, ptr %11, align 4
  br label %158

158:                                              ; preds = %151, %112, %100
  call void @llvm.lifetime.end.p0(i64 8, ptr %10) #9
  call void @llvm.lifetime.end.p0(i64 8, ptr %9) #9
  call void @llvm.lifetime.end.p0(i64 8, ptr %8) #9
  %159 = load i32, ptr %4, align 4
  ret i32 %159
}