; Function Attrs: nounwind uwtable
define range(i32 -22, 1) i32 @ff_url_decompose(ptr noundef writeonly captures(none) %0, ptr noundef %1, ptr noundef %2) local_unnamed_addr #0 {
  %.not = icmp eq ptr %1, null
  br i1 %.not, label %4, label %5

4:                                                ; preds = %3
  tail call void (ptr, i32, ptr, ...) @av_log(ptr noundef null, i32 noundef 0, ptr noundef nonnull @.str.5, ptr noundef nonnull @.str.6, ptr noundef nonnull @.str.7, i32 noundef 95) #12
  tail call void @abort() #14
  unreachable

5:                                                ; preds = %3
  %.not64 = icmp eq ptr %2, null
  br i1 %.not64, label %6, label %9

6:                                                ; preds = %5
  %7 = tail call i64 @strlen(ptr noundef nonnull dereferenceable(1) %1) #13
  %8 = getelementptr inbounds nuw i8, ptr %1, i64 %7
  br label %9

9:                                                ; preds = %6, %5
  %.060 = phi ptr [ %2, %5 ], [ %8, %6 ]
  store ptr %1, ptr %0, align 8, !tbaa !16
  %10 = getelementptr inbounds nuw i8, ptr %0, i64 8
  store ptr %1, ptr %10, align 8, !tbaa !18
  %11 = icmp ult ptr %1, %.060
  %12 = ptrtoint ptr %.060 to i64
  br i1 %11, label %.lr.ph.preheader.i, label %find_delim.exit

.lr.ph.preheader.i:                               ; preds = %9
  %13 = ptrtoint ptr %1 to i64
  %14 = sub i64 %12, %13
  %scevgep.i = getelementptr i8, ptr %1, i64 %14
  br label %.lr.ph.i

.lr.ph.i:                                         ; preds = %19, %.lr.ph.preheader.i
  %.06.i = phi ptr [ %20, %19 ], [ %1, %.lr.ph.preheader.i ]
  %15 = load i8, ptr %.06.i, align 1, !tbaa !4
  %16 = zext nneg i8 %15 to i64
  %memchr.bounds = icmp ugt i8 %15, 63
  %17 = shl nuw i64 1, %16
  %18 = and i64 %17, -8935000888854970367
  %memchr.bits = icmp eq i64 %18, 0
  %memchr120.not = select i1 %memchr.bounds, i1 true, i1 %memchr.bits
  br i1 %memchr120.not, label %19, label %find_delim.exit

19:                                               ; preds = %.lr.ph.i
  %20 = getelementptr inbounds nuw i8, ptr %.06.i, i64 1
  %exitcond.not.i = icmp eq ptr %20, %.060
  br i1 %exitcond.not.i, label %find_delim.exit, label %.lr.ph.i, !llvm.loop !19

find_delim.exit:                                  ; preds = %.lr.ph.i, %19, %9
  %.0.lcssa.i = phi ptr [ %1, %9 ], [ %.06.i, %.lr.ph.i ], [ %scevgep.i, %19 ]
  %21 = load i8, ptr %.0.lcssa.i, align 1, !tbaa !4
  %22 = icmp eq i8 %21, 58
  %23 = getelementptr inbounds nuw i8, ptr %.0.lcssa.i, i64 1
  %spec.select = select i1 %22, ptr %23, ptr %1
  %24 = getelementptr inbounds nuw i8, ptr %0, i64 16
  store ptr %spec.select, ptr %24, align 8, !tbaa !21
  %25 = ptrtoint ptr %spec.select to i64
  %26 = sub i64 %12, %25
  %27 = icmp sgt i64 %26, 1
  br i1 %27, label %28, label %82

28:                                               ; preds = %find_delim.exit
  %29 = load i8, ptr %spec.select, align 1, !tbaa !4
  %30 = icmp eq i8 %29, 47
  br i1 %30, label %31, label %82

31:                                               ; preds = %28
  %32 = getelementptr inbounds nuw i8, ptr %spec.select, i64 1
  %33 = load i8, ptr %32, align 1, !tbaa !4
  %34 = icmp eq i8 %33, 47
  br i1 %34, label %35, label %82

35:                                               ; preds = %31
  %36 = getelementptr inbounds nuw i8, ptr %spec.select, i64 2
  %37 = icmp ult ptr %36, %.060
  br i1 %37, label %.lr.ph.preheader.i69, label %find_delim.exit75.thread

find_delim.exit75.thread:                         ; preds = %35
  %38 = getelementptr inbounds nuw i8, ptr %0, i64 24
  store ptr %36, ptr %38, align 8, !tbaa !22
  br label %find_delim.exit83

.lr.ph.preheader.i69:                             ; preds = %35
  %39 = ptrtoint ptr %36 to i64
  %40 = sub i64 %12, %39
  %scevgep.i70 = getelementptr i8, ptr %36, i64 %40
  br label %.lr.ph.i71

.lr.ph.i71:                                       ; preds = %45, %.lr.ph.preheader.i69
  %.06.i72 = phi ptr [ %46, %45 ], [ %36, %.lr.ph.preheader.i69 ]
  %41 = load i8, ptr %.06.i72, align 1, !tbaa !4
  %42 = zext nneg i8 %41 to i64
  %memchr.bounds121 = icmp ugt i8 %41, 63
  %43 = shl nuw i64 1, %42
  %44 = and i64 %43, -9223231265006682111
  %memchr.bits122 = icmp eq i64 %44, 0
  %memchr123.not = select i1 %memchr.bounds121, i1 true, i1 %memchr.bits122
  br i1 %memchr123.not, label %45, label %find_delim.exit75

45:                                               ; preds = %.lr.ph.i71
  %46 = getelementptr inbounds nuw i8, ptr %.06.i72, i64 1
  %exitcond.not.i74 = icmp eq ptr %46, %.060
  br i1 %exitcond.not.i74, label %find_delim.exit75, label %.lr.ph.i71, !llvm.loop !19

find_delim.exit75:                                ; preds = %.lr.ph.i71, %45
  %.0.lcssa.i68 = phi ptr [ %scevgep.i70, %45 ], [ %.06.i72, %.lr.ph.i71 ]
  %47 = getelementptr inbounds nuw i8, ptr %0, i64 24
  store ptr %36, ptr %47, align 8, !tbaa !22
  %48 = icmp ult ptr %36, %.0.lcssa.i68
  br i1 %48, label %.lr.ph.preheader.i77, label %find_delim.exit83

.lr.ph.preheader.i77:                             ; preds = %find_delim.exit75
  %49 = ptrtoint ptr %.0.lcssa.i68 to i64
  %50 = sub i64 %49, %39
  %scevgep.i78 = getelementptr i8, ptr %36, i64 %50
  br label %.lr.ph.i79

.lr.ph.i79:                                       ; preds = %53, %.lr.ph.preheader.i77
  %.06.i80 = phi ptr [ %54, %53 ], [ %36, %.lr.ph.preheader.i77 ]
  %51 = load i8, ptr %.06.i80, align 1, !tbaa !4
  %52 = and i8 %51, -65
  %.not.i81.not = icmp eq i8 %52, 0
  br i1 %.not.i81.not, label %find_delim.exit83, label %53

53:                                               ; preds = %.lr.ph.i79
  %54 = getelementptr inbounds nuw i8, ptr %.06.i80, i64 1
  %exitcond.not.i82 = icmp eq ptr %54, %.0.lcssa.i68
  br i1 %exitcond.not.i82, label %find_delim.exit83, label %.lr.ph.i79, !llvm.loop !19

find_delim.exit83:                                ; preds = %.lr.ph.i79, %53, %find_delim.exit75.thread, %find_delim.exit75
  %.0.lcssa.i68117 = phi ptr [ %.0.lcssa.i68, %find_delim.exit75 ], [ %36, %find_delim.exit75.thread ], [ %.0.lcssa.i68, %53 ], [ %.0.lcssa.i68, %.lr.ph.i79 ]
  %.0.lcssa.i76 = phi ptr [ %36, %find_delim.exit75 ], [ %36, %find_delim.exit75.thread ], [ %.06.i80, %.lr.ph.i79 ], [ %scevgep.i78, %53 ]
  %55 = load i8, ptr %.0.lcssa.i76, align 1, !tbaa !4
  %56 = icmp eq i8 %55, 64
  %57 = getelementptr inbounds nuw i8, ptr %.0.lcssa.i76, i64 1
  %spec.select67 = select i1 %56, ptr %57, ptr %36
  %58 = getelementptr inbounds nuw i8, ptr %0, i64 32
  store ptr %spec.select67, ptr %58, align 8, !tbaa !23
  %59 = load i8, ptr %spec.select67, align 1, !tbaa !4
  %60 = icmp eq i8 %59, 91
  %61 = icmp ult ptr %spec.select67, %.0.lcssa.i68117
  br i1 %60, label %62, label %75

62:                                               ; preds = %find_delim.exit83
  br i1 %61, label %.lr.ph.preheader.i85, label %find_delim.exit91.thread

.lr.ph.preheader.i85:                             ; preds = %62
  %63 = ptrtoint ptr %.0.lcssa.i68117 to i64
  %64 = ptrtoint ptr %spec.select67 to i64
  %65 = sub i64 %63, %64
  %scevgep.i86 = getelementptr i8, ptr %spec.select67, i64 %65
  br label %.lr.ph.i87

.lr.ph.i87:                                       ; preds = %67, %.lr.ph.preheader.i85
  %.06.i88 = phi ptr [ %68, %67 ], [ %spec.select67, %.lr.ph.preheader.i85 ]
  %66 = load i8, ptr %.06.i88, align 1, !tbaa !4
  switch i8 %66, label %67 [
    i8 93, label %find_delim.exit91
    i8 0, label %find_delim.exit91
  ]

67:                                               ; preds = %.lr.ph.i87
  %68 = getelementptr inbounds nuw i8, ptr %.06.i88, i64 1
  %exitcond.not.i90 = icmp eq ptr %68, %.0.lcssa.i68117
  br i1 %exitcond.not.i90, label %find_delim.exit91thread-pre-split, label %.lr.ph.i87, !llvm.loop !19

find_delim.exit91thread-pre-split:                ; preds = %67
  %.pr = load i8, ptr %scevgep.i86, align 1, !tbaa !4
  br label %find_delim.exit91

find_delim.exit91:                                ; preds = %.lr.ph.i87, %.lr.ph.i87, %find_delim.exit91thread-pre-split
  %69 = phi i8 [ %.pr, %find_delim.exit91thread-pre-split ], [ %66, %.lr.ph.i87 ], [ %66, %.lr.ph.i87 ]
  %.0.lcssa.i84 = phi ptr [ %scevgep.i86, %find_delim.exit91thread-pre-split ], [ %.06.i88, %.lr.ph.i87 ], [ %.06.i88, %.lr.ph.i87 ]
  %.not65 = icmp eq i8 %69, 93
  br i1 %.not65, label %70, label %find_delim.exit91.thread

70:                                               ; preds = %find_delim.exit91
  %71 = getelementptr inbounds nuw i8, ptr %.0.lcssa.i84, i64 1
  %72 = icmp ult ptr %71, %.0.lcssa.i68117
  br i1 %72, label %73, label %find_delim.exit99

73:                                               ; preds = %70
  %74 = load i8, ptr %71, align 1, !tbaa !4
  %.not66 = icmp eq i8 %74, 58
  br i1 %.not66, label %find_delim.exit99, label %find_delim.exit91.thread

75:                                               ; preds = %find_delim.exit83
  br i1 %61, label %.lr.ph.preheader.i93, label %find_delim.exit99

.lr.ph.preheader.i93:                             ; preds = %75
  %76 = ptrtoint ptr %.0.lcssa.i68117 to i64
  %77 = ptrtoint ptr %spec.select67 to i64
  %78 = sub i64 %76, %77
  %scevgep.i94 = getelementptr i8, ptr %spec.select67, i64 %78
  br label %.lr.ph.i95

.lr.ph.i95:                                       ; preds = %80, %.lr.ph.preheader.i93
  %.06.i96 = phi ptr [ %81, %80 ], [ %spec.select67, %.lr.ph.preheader.i93 ]
  %79 = load i8, ptr %.06.i96, align 1, !tbaa !4
  switch i8 %79, label %80 [
    i8 58, label %find_delim.exit99
    i8 0, label %find_delim.exit99
  ]

80:                                               ; preds = %.lr.ph.i95
  %81 = getelementptr inbounds nuw i8, ptr %.06.i96, i64 1
  %exitcond.not.i98 = icmp eq ptr %81, %.0.lcssa.i68117
  br i1 %exitcond.not.i98, label %find_delim.exit99, label %.lr.ph.i95, !llvm.loop !19

82:                                               ; preds = %31, %28, %find_delim.exit
  %83 = getelementptr inbounds nuw i8, ptr %0, i64 40
  store ptr %spec.select, ptr %83, align 8, !tbaa !24
  %84 = getelementptr inbounds nuw i8, ptr %0, i64 32
  store ptr %spec.select, ptr %84, align 8, !tbaa !23
  br label %find_delim.exit99

find_delim.exit99:                                ; preds = %80, %.lr.ph.i95, %.lr.ph.i95, %73, %70, %75, %82
  %.sink137 = phi i64 [ 24, %82 ], [ 40, %75 ], [ 40, %70 ], [ 40, %73 ], [ 40, %.lr.ph.i95 ], [ 40, %.lr.ph.i95 ], [ 40, %80 ]
  %spec.select.sink = phi ptr [ %spec.select, %82 ], [ %spec.select67, %75 ], [ %71, %70 ], [ %71, %73 ], [ %scevgep.i94, %80 ], [ %.06.i96, %.lr.ph.i95 ], [ %.06.i96, %.lr.ph.i95 ]
  %.3 = phi ptr [ %spec.select, %82 ], [ %.0.lcssa.i68117, %75 ], [ %.0.lcssa.i68117, %70 ], [ %.0.lcssa.i68117, %73 ], [ %.0.lcssa.i68117, %.lr.ph.i95 ], [ %.0.lcssa.i68117, %.lr.ph.i95 ], [ %.0.lcssa.i68117, %80 ]
  %85 = getelementptr inbounds nuw i8, ptr %0, i64 %.sink137
  store ptr %spec.select.sink, ptr %85, align 8, !tbaa !25
  %86 = getelementptr inbounds nuw i8, ptr %0, i64 48
  store ptr %.3, ptr %86, align 8, !tbaa !26
  %87 = icmp ult ptr %.3, %.060
  br i1 %87, label %.lr.ph.preheader.i101, label %find_delim.exit107

.lr.ph.preheader.i101:                            ; preds = %find_delim.exit99
  %88 = ptrtoint ptr %.3 to i64
  %89 = sub i64 %12, %88
  %scevgep.i102 = getelementptr i8, ptr %.3, i64 %89
  br label %.lr.ph.i103

.lr.ph.i103:                                      ; preds = %94, %.lr.ph.preheader.i101
  %.06.i104 = phi ptr [ %95, %94 ], [ %.3, %.lr.ph.preheader.i101 ]
  %90 = load i8, ptr %.06.i104, align 1, !tbaa !4
  %91 = zext nneg i8 %90 to i64
  %memchr.bounds127 = icmp ugt i8 %90, 63
  %92 = shl nuw i64 1, %91
  %93 = and i64 %92, -9223372002495037439
  %memchr.bits128 = icmp eq i64 %93, 0
  %memchr129.not = select i1 %memchr.bounds127, i1 true, i1 %memchr.bits128
  br i1 %memchr129.not, label %94, label %find_delim.exit107

94:                                               ; preds = %.lr.ph.i103
  %95 = getelementptr inbounds nuw i8, ptr %.06.i104, i64 1
  %exitcond.not.i106 = icmp eq ptr %95, %.060
  br i1 %exitcond.not.i106, label %find_delim.exit107, label %.lr.ph.i103, !llvm.loop !19

find_delim.exit107:                               ; preds = %.lr.ph.i103, %94, %find_delim.exit99
  %.0.lcssa.i100 = phi ptr [ %.3, %find_delim.exit99 ], [ %.06.i104, %.lr.ph.i103 ], [ %scevgep.i102, %94 ]
  %96 = getelementptr inbounds nuw i8, ptr %0, i64 56
  store ptr %.0.lcssa.i100, ptr %96, align 8, !tbaa !27
  %97 = load i8, ptr %.0.lcssa.i100, align 1, !tbaa !4
  %98 = icmp eq i8 %97, 63
  %99 = icmp ult ptr %.0.lcssa.i100, %.060
  %or.cond = and i1 %99, %98
  br i1 %or.cond, label %.lr.ph.preheader.i109, label %find_delim.exit115

.lr.ph.preheader.i109:                            ; preds = %find_delim.exit107
  %100 = ptrtoint ptr %.0.lcssa.i100 to i64
  %101 = sub i64 %12, %100
  %scevgep.i110 = getelementptr i8, ptr %.0.lcssa.i100, i64 %101
  br label %.lr.ph.i111

.lr.ph.i111:                                      ; preds = %103, %.lr.ph.preheader.i109
  %.06.i112 = phi ptr [ %104, %103 ], [ %.0.lcssa.i100, %.lr.ph.preheader.i109 ]
  %102 = load i8, ptr %.06.i112, align 1, !tbaa !4
  switch i8 %102, label %103 [
    i8 35, label %find_delim.exit115
    i8 0, label %find_delim.exit115
  ]

103:                                              ; preds = %.lr.ph.i111
  %104 = getelementptr inbounds nuw i8, ptr %.06.i112, i64 1
  %exitcond.not.i114 = icmp eq ptr %104, %.060
  br i1 %exitcond.not.i114, label %find_delim.exit115, label %.lr.ph.i111, !llvm.loop !19

find_delim.exit115:                               ; preds = %.lr.ph.i111, %.lr.ph.i111, %103, %find_delim.exit107
  %.4 = phi ptr [ %.0.lcssa.i100, %find_delim.exit107 ], [ %.06.i112, %.lr.ph.i111 ], [ %.06.i112, %.lr.ph.i111 ], [ %scevgep.i110, %103 ]
  %105 = getelementptr inbounds nuw i8, ptr %0, i64 64
  store ptr %.4, ptr %105, align 8, !tbaa !28
  %106 = getelementptr inbounds nuw i8, ptr %0, i64 72
  store ptr %.060, ptr %106, align 8, !tbaa !29
  br label %find_delim.exit91.thread

find_delim.exit91.thread:                         ; preds = %62, %73, %find_delim.exit91, %find_delim.exit115
  %.0 = phi i32 [ 0, %find_delim.exit115 ], [ -22, %find_delim.exit91 ], [ -22, %73 ], [ -22, %62 ]
  ret i32 %.0
}